target datalayout = "e-m:e-p270:32:32-p271:32:32-p272:64:64-i64:64-i128:128-f80:128-n8:16:32:64-S128"
target triple = "x86_64-pc-linux-gnu"

%struct.AVChannelLayout = type { i32, i32, %union.anon.1, ptr }
%union.anon.1 = type { i64 }
%struct.AVRational = type { i32, i32 }
%struct.AVFrame = type { [8 x ptr], [8 x i32], ptr, i32, i32, i32, i32, i32, %struct.AVRational, i64, i64, %struct.AVRational, i32, ptr, i32, i32, [8 x ptr], ptr, i32, ptr, i32, i32, i32, i32, i32, i32, i32, i64, ptr, i32, ptr, ptr, i64, i64, i64, i64, ptr, %struct.AVChannelLayout, i64 }
%struct.LineItem = type { i32, i32, float, float, float, float }

; Function Attrs: nounwind uwtable
define internal void @read_byte(ptr noundef %0, i32 noundef %1, ptr noundef %2, i32 noundef %3, i32 noundef %4) #1 {
  %6 = alloca ptr, align 8
  %7 = alloca i32, align 4
  %8 = alloca ptr, align 8
  %9 = alloca i32, align 4
  %10 = alloca i32, align 4
  %11 = alloca ptr, align 8
  %12 = alloca i32, align 4
  %13 = alloca i32, align 4
  %14 = alloca i32, align 4
  %15 = alloca i32, align 4
  %16 = alloca i32, align 4
  %17 = alloca i32, align 4
  %18 = alloca i32, align 4
  %19 = alloca i32, align 4
  store ptr %0, ptr %6, align 8, !tbaa !38
  store i32 %1, ptr %7, align 4, !tbaa !24
  store ptr %2, ptr %8, align 8, !tbaa !69
  store i32 %3, ptr %9, align 4, !tbaa !24
  store i32 %4, ptr %10, align 4, !tbaa !24
  call void @llvm.lifetime.start.p0(i64 8, ptr %11) #8
  %20 = load ptr, ptr %6, align 8, !tbaa !38
  %21 = getelementptr inbounds nuw %struct.AVFrame, ptr %20, i32 0, i32 0
  %22 = getelementptr inbounds [8 x ptr], ptr %21, i64 0, i64 0
  %23 = load ptr, ptr %22, align 8, !tbaa !33
  %24 = load i32, ptr %7, align 4, !tbaa !24
  %25 = load ptr, ptr %6, align 8, !tbaa !38
  %26 = getelementptr inbounds nuw %struct.AVFrame, ptr %25, i32 0, i32 1
  %27 = getelementptr inbounds [8 x i32], ptr %26, i64 0, i64 0
  %28 = load i32, ptr %27, align 8, !tbaa !24
  %29 = mul nsw i32 %24, %28
  %30 = sext i32 %29 to i64
  %31 = getelementptr inbounds i8, ptr %23, i64 %30
  store ptr %31, ptr %11, align 8, !tbaa !33
  %32 = load i32, ptr %9, align 4, !tbaa !24
  %33 = icmp ne i32 %32, 0
  br i1 %33, label %34, label %167

34:                                               ; preds = %5
  call void @llvm.lifetime.start.p0(i64 4, ptr %12) #8
  store i32 0, ptr %12, align 4, !tbaa !24
  br label %35

35:                                               ; preds = %163, %34
  %36 = load i32, ptr %12, align 4, !tbaa !24
  %37 = load i32, ptr %10, align 4, !tbaa !24
  %38 = icmp slt i32 %36, %37
  br i1 %38, label %40, label %39

39:                                               ; preds = %35
  call void @llvm.lifetime.end.p0(i64 4, ptr %12) #8
  br label %166

40:                                               ; preds = %35
  call void @llvm.lifetime.start.p0(i64 4, ptr %13) #8
  %41 = load i32, ptr %12, align 4, !tbaa !24
  %42 = sub nsw i32 %41, 3
  %43 = icmp sgt i32 %42, 0
  br i1 %43, label %44, label %47

44:                                               ; preds = %40
  %45 = load i32, ptr %12, align 4, !tbaa !24
  %46 = sub nsw i32 %45, 3
  br label %48

47:                                               ; preds = %40
  br label %48

48:                                               ; preds = %47, %44
  %49 = phi i32 [ %46, %44 ], [ 0, %47 ]
  store i32 %49, ptr %13, align 4, !tbaa !24
  call void @llvm.lifetime.start.p0(i64 4, ptr %14) #8
  %50 = load i32, ptr %12, align 4, !tbaa !24
  %51 = sub nsw i32 %50, 2
  %52 = icmp sgt i32 %51, 0
  br i1 %52, label %53, label %56

53:                                               ; preds = %48
  %54 = load i32, ptr %12, align 4, !tbaa !24
  %55 = sub nsw i32 %54, 2
  br label %57

56:                                               ; preds = %48
  br label %57

57:                                               ; preds = %56, %53
  %58 = phi i32 [ %55, %53 ], [ 0, %56 ]
  store i32 %58, ptr %14, align 4, !tbaa !24
  call void @llvm.lifetime.start.p0(i64 4, ptr %15) #8
  %59 = load i32, ptr %12, align 4, !tbaa !24
  %60 = sub nsw i32 %59, 1
  %61 = icmp sgt i32 %60, 0
  br i1 %61, label %62, label %65

62:                                               ; preds = %57
  %63 = load i32, ptr %12, align 4, !tbaa !24
  %64 = sub nsw i32 %63, 1
  br label %66

65:                                               ; preds = %57
  br label %66

66:                                               ; preds = %65, %62
  %67 = phi i32 [ %64, %62 ], [ 0, %65 ]
  store i32 %67, ptr %15, align 4, !tbaa !24
  call void @llvm.lifetime.start.p0(i64 4, ptr %16) #8
  %68 = load i32, ptr %12, align 4, !tbaa !24
  %69 = add nsw i32 %68, 3
  %70 = load i32, ptr %10, align 4, !tbaa !24
  %71 = sub nsw i32 %70, 1
  %72 = icmp sgt i32 %69, %71
  br i1 %72, label %73, label %76

73:                                               ; preds = %66
  %74 = load i32, ptr %10, align 4, !tbaa !24
  %75 = sub nsw i32 %74, 1
  br label %79

76:                                               ; preds = %66
  %77 = load i32, ptr %12, align 4, !tbaa !24
  %78 = add nsw i32 %77, 3
  br label %79

79:                                               ; preds = %76, %73
  %80 = phi i32 [ %75, %73 ], [ %78, %76 ]
  store i32 %80, ptr %16, align 4, !tbaa !24
  call void @llvm.lifetime.start.p0(i64 4, ptr %17) #8
  %81 = load i32, ptr %12, align 4, !tbaa !24
  %82 = add nsw i32 %81, 2
  %83 = load i32, ptr %10, align 4, !tbaa !24
  %84 = sub nsw i32 %83, 1
  %85 = icmp sgt i32 %82, %84
  br i1 %85, label %86, label %89

86:                                               ; preds = %79
  %87 = load i32, ptr %10, align 4, !tbaa !24
  %88 = sub nsw i32 %87, 1
  br label %92

89:                                               ; preds = %79
  %90 = load i32, ptr %12, align 4, !tbaa !24
  %91 = add nsw i32 %90, 2
  br label %92

92:                                               ; preds = %89, %86
  %93 = phi i32 [ %88, %86 ], [ %91, %89 ]
  store i32 %93, ptr %17, align 4, !tbaa !24
  call void @llvm.lifetime.start.p0(i64 4, ptr %18) #8
  %94 = load i32, ptr %12, align 4, !tbaa !24
  %95 = add nsw i32 %94, 1
  %96 = load i32, ptr %10, align 4, !tbaa !24
  %97 = sub nsw i32 %96, 1
  %98 = icmp sgt i32 %95, %97
  br i1 %98, label %99, label %102

99:                                               ; preds = %92
  %100 = load i32, ptr %10, align 4, !tbaa !24
  %101 = sub nsw i32 %100, 1
  br label %105

102:                                              ; preds = %92
  %103 = load i32, ptr %12, align 4, !tbaa !24
  %104 = add nsw i32 %103, 1
  br label %105

105:                                              ; preds = %102, %99
  %106 = phi i32 [ %101, %99 ], [ %104, %102 ]
  store i32 %106, ptr %18, align 4, !tbaa !24
  %107 = load ptr, ptr %11, align 8, !tbaa !33
  %108 = load i32, ptr %13, align 4, !tbaa !24
  %109 = sext i32 %108 to i64
  %110 = getelementptr inbounds i8, ptr %107, i64 %109
  %111 = load i8, ptr %110, align 1, !tbaa !54
  %112 = zext i8 %111 to i32
  %113 = load ptr, ptr %11, align 8, !tbaa !33
  %114 = load i32, ptr %14, align 4, !tbaa !24
  %115 = sext i32 %114 to i64
  %116 = getelementptr inbounds i8, ptr %113, i64 %115
  %117 = load i8, ptr %116, align 1, !tbaa !54
  %118 = zext i8 %117 to i32
  %119 = add nsw i32 %112, %118
  %120 = load ptr, ptr %11, align 8, !tbaa !33
  %121 = load i32, ptr %15, align 4, !tbaa !24
  %122 = sext i32 %121 to i64
  %123 = getelementptr inbounds i8, ptr %120, i64 %122
  %124 = load i8, ptr %123, align 1, !tbaa !54
  %125 = zext i8 %124 to i32
  %126 = add nsw i32 %119, %125
  %127 = load ptr, ptr %11, align 8, !tbaa !33
  %128 = load i32, ptr %12, align 4, !tbaa !24
  %129 = sext i32 %128 to i64
  %130 = getelementptr inbounds i8, ptr %127, i64 %129
  %131 = load i8, ptr %130, align 1, !tbaa !54
  %132 = zext i8 %131 to i32
  %133 = add nsw i32 %126, %132
  %134 = load ptr, ptr %11, align 8, !tbaa !33
  %135 = load i32, ptr %16, align 4, !tbaa !24
  %136 = sext i32 %135 to i64
  %137 = getelementptr inbounds i8, ptr %134, i64 %136
  %138 = load i8, ptr %137, align 1, !tbaa !54
  %139 = zext i8 %138 to i32
  %140 = add nsw i32 %133, %139
  %141 = load ptr, ptr %11, align 8, !tbaa !33
  %142 = load i32, ptr %17, align 4, !tbaa !24
  %143 = sext i32 %142 to i64
  %144 = getelementptr inbounds i8, ptr %141, i64 %143
  %145 = load i8, ptr %144, align 1, !tbaa !54
  %146 = zext i8 %145 to i32
  %147 = add nsw i32 %140, %146
  %148 = load ptr, ptr %11, align 8, !tbaa !33
  %149 = load i32, ptr %18, align 4, !tbaa !24
  %150 = sext i32 %149 to i64
  %151 = getelementptr inbounds i8, ptr %148, i64 %150
  %152 = load i8, ptr %151, align 1, !tbaa !54
  %153 = zext i8 %152 to i32
  %154 = add nsw i32 %147, %153
  %155 = add nsw i32 %154, 6
  %156 = sdiv i32 %155, 7
  %157 = load ptr, ptr %8, align 8, !tbaa !69
  %158 = load i32, ptr %12, align 4, !tbaa !24
  %159 = add nsw i32 25, %158
  %160 = sext i32 %159 to i64
  %161 = getelementptr inbounds %struct.LineItem, ptr %157, i64 %160
  %162 = getelementptr inbounds nuw %struct.LineItem, ptr %161, i32 0, i32 0
  store i32 %156, ptr %162, align 4, !tbaa !86
  call void @llvm.lifetime.end.p0(i64 4, ptr %18) #8
  call void @llvm.lifetime.end.p0(i64 4, ptr %17) #8
  call void @llvm.lifetime.end.p0(i64 4, ptr %16) #8
  call void @llvm.lifetime.end.p0(i64 4, ptr %15) #8
  call void @llvm.lifetime.end.p0(i64 4, ptr %14) #8
  call void @llvm.lifetime.end.p0(i64 4, ptr %13) #8
  br label %163

163:                                              ; preds = %105
  %164 = load i32, ptr %12, align 4, !tbaa !24
  %165 = add nsw i32 %164, 1
  store i32 %165, ptr %12, align 4, !tbaa !24
  br label %35, !llvm.loop !109

166:                                              ; preds = %39
  br label %190

167:                                              ; preds = %5
  call void @llvm.lifetime.start.p0(i64 4, ptr %19) #8
  store i32 0, ptr %19, align 4, !tbaa !24
  br label %168

168:                                              ; preds = %186, %167
  %169 = load i32, ptr %19, align 4, !tbaa !24
  %170 = load i32, ptr %10, align 4, !tbaa !24
  %171 = icmp slt i32 %169, %170
  br i1 %171, label %173, label %172

172:                                              ; preds = %168
  call void @llvm.lifetime.end.p0(i64 4, ptr %19) #8
  br label %189

173:                                              ; preds = %168
  %174 = load ptr, ptr %11, align 8, !tbaa !33
  %175 = load i32, ptr %19, align 4, !tbaa !24
  %176 = sext i32 %175 to i64
  %177 = getelementptr inbounds i8, ptr %174, i64 %176
  %178 = load i8, ptr %177, align 1, !tbaa !54
  %179 = zext i8 %178 to i32
  %180 = load ptr, ptr %8, align 8, !tbaa !69
  %181 = load i32, ptr %19, align 4, !tbaa !24
  %182 = add nsw i32 25, %181
  %183 = sext i32 %182 to i64
  %184 = getelementptr inbounds %struct.LineItem, ptr %180, i64 %183
  %185 = getelementptr inbounds nuw %struct.LineItem, ptr %184, i32 0, i32 0
  store i32 %179, ptr %185, align 4, !tbaa !86
  br label %186

186:                                              ; preds = %173
  %187 = load i32, ptr %19, align 4, !tbaa !24
  %188 = add nsw i32 %187, 1
  store i32 %188, ptr %19, align 4, !tbaa !24
  br label %168, !llvm.loop !110

189:                                              ; preds = %172
  br label %190

190:                                              ; preds = %189, %166
  call void @llvm.lifetime.end.p0(i64 8, ptr %11) #8
  ret void
}