; Function Attrs: nofree norecurse nosync nounwind memory(read, argmem: readwrite, inaccessiblemem: none) uwtable
define internal void @read_byte(ptr noundef readonly captures(none) %0, i32 noundef %1, ptr noundef writeonly captures(none) %2, i32 noundef %3, i32 noundef %4) #8 {
  %6 = load ptr, ptr %0, align 8, !tbaa !95
  %7 = getelementptr inbounds nuw i8, ptr %0, i64 64
  %8 = load i32, ptr %7, align 8, !tbaa !96
  %9 = mul nsw i32 %8, %1
  %10 = sext i32 %9 to i64
  %11 = getelementptr inbounds i8, ptr %6, i64 %10
  %.not = icmp eq i32 %3, 0
  br i1 %.not, label %.preheader, label %.preheader49

.preheader49:                                     ; preds = %5
  %invariant.gep = getelementptr i8, ptr %11, i64 -3
  %invariant.gep51 = getelementptr i8, ptr %11, i64 -2
  %invariant.gep53 = getelementptr i8, ptr %11, i64 -1
  %invariant.gep55 = getelementptr inbounds nuw i8, ptr %2, i64 600
  %12 = icmp sgt i32 %4, 0
  br i1 %12, label %.lr.ph, label %.loopexit

.lr.ph:                                           ; preds = %.preheader49
  %13 = add nsw i32 %4, -1
  %wide.trip.count = zext nneg i32 %4 to i64
  br label %15

.preheader:                                       ; preds = %5
  %invariant.gep58 = getelementptr inbounds nuw i8, ptr %2, i64 600
  %14 = icmp sgt i32 %4, 0
  br i1 %14, label %.lr.ph61.preheader, label %.loopexit

.lr.ph61.preheader:                               ; preds = %.preheader
  %wide.trip.count67 = zext nneg i32 %4 to i64
  br label %.lr.ph61

15:                                               ; preds = %.lr.ph, %15
  %indvars.iv = phi i64 [ 0, %.lr.ph ], [ %indvars.iv.next, %15 ]
  %16 = trunc nuw nsw i64 %indvars.iv to i32
  %17 = tail call i32 @llvm.smax.i32(i32 %16, i32 3)
  %18 = tail call i32 @llvm.smax.i32(i32 %16, i32 2)
  %19 = tail call i32 @llvm.smax.i32(i32 %16, i32 1)
  %20 = trunc i64 %indvars.iv to i32
  %21 = add i32 %20, 3
  %22 = tail call i32 @llvm.smin.i32(i32 %21, i32 %13)
  %23 = trunc i64 %indvars.iv to i32
  %24 = add i32 %23, 2
  %25 = tail call i32 @llvm.smin.i32(i32 %24, i32 %13)
  %indvars.iv.next = add nuw nsw i64 %indvars.iv, 1
  %26 = trunc nuw nsw i64 %indvars.iv.next to i32
  %27 = tail call i32 @llvm.smin.i32(i32 %26, i32 %13)
  %28 = zext nneg i32 %17 to i64
  %gep = getelementptr i8, ptr %invariant.gep, i64 %28
  %29 = load i8, ptr %gep, align 1, !tbaa !46
  %30 = zext i8 %29 to i16
  %31 = zext nneg i32 %18 to i64
  %gep52 = getelementptr i8, ptr %invariant.gep51, i64 %31
  %32 = load i8, ptr %gep52, align 1, !tbaa !46
  %33 = zext i8 %32 to i16
  %34 = zext nneg i32 %19 to i64
  %gep54 = getelementptr i8, ptr %invariant.gep53, i64 %34
  %35 = load i8, ptr %gep54, align 1, !tbaa !46
  %36 = zext i8 %35 to i16
  %37 = getelementptr inbounds nuw i8, ptr %11, i64 %indvars.iv
  %38 = load i8, ptr %37, align 1, !tbaa !46
  %39 = zext i8 %38 to i16
  %40 = sext i32 %22 to i64
  %41 = getelementptr inbounds i8, ptr %11, i64 %40
  %42 = load i8, ptr %41, align 1, !tbaa !46
  %43 = zext i8 %42 to i16
  %44 = sext i32 %25 to i64
  %45 = getelementptr inbounds i8, ptr %11, i64 %44
  %46 = load i8, ptr %45, align 1, !tbaa !46
  %47 = zext i8 %46 to i16
  %48 = sext i32 %27 to i64
  %49 = getelementptr inbounds i8, ptr %11, i64 %48
  %50 = load i8, ptr %49, align 1, !tbaa !46
  %51 = zext i8 %50 to i16
  %52 = add nuw nsw i16 %30, 6
  %53 = add nuw nsw i16 %52, %33
  %54 = add nuw nsw i16 %53, %36
  %55 = add nuw nsw i16 %54, %39
  %56 = add nuw nsw i16 %55, %43
  %57 = add nuw nsw i16 %56, %47
  %.lhs.trunc = add nuw nsw i16 %57, %51
  %58 = udiv i16 %.lhs.trunc, 7
  %.zext = zext nneg i16 %58 to i32
  %gep56 = getelementptr inbounds nuw %struct.LineItem, ptr %invariant.gep55, i64 %indvars.iv
  store i32 %.zext, ptr %gep56, align 4, !tbaa !60
  %exitcond.not = icmp eq i64 %indvars.iv.next, %wide.trip.count
  br i1 %exitcond.not, label %.loopexit, label %15, !llvm.loop !97

.lr.ph61:                                         ; preds = %.lr.ph61.preheader, %.lr.ph61
  %indvars.iv64 = phi i64 [ 0, %.lr.ph61.preheader ], [ %indvars.iv.next65, %.lr.ph61 ]
  %59 = getelementptr inbounds nuw i8, ptr %11, i64 %indvars.iv64
  %60 = load i8, ptr %59, align 1, !tbaa !46
  %61 = zext i8 %60 to i32
  %gep59 = getelementptr inbounds nuw %struct.LineItem, ptr %invariant.gep58, i64 %indvars.iv64
  store i32 %61, ptr %gep59, align 4, !tbaa !60
  %indvars.iv.next65 = add nuw nsw i64 %indvars.iv64, 1
  %exitcond68.not = icmp eq i64 %indvars.iv.next65, %wide.trip.count67
  br i1 %exitcond68.not, label %.loopexit, label %.lr.ph61, !llvm.loop !98

.loopexit:                                        ; preds = %15, %.lr.ph61, %.preheader49, %.preheader
  ret void
}